; Function Attrs: null_pointer_is_valid sspstrong uwtable
define internal fastcc range(i32 23, 112) i32 @dissect_rdm_pd_component_scope(ptr noundef %0, ptr noundef %1, i8 noundef zeroext %2) unnamed_addr #1 {
  switch i8 %2, label %17 [
    i8 32, label %.sink.split
    i8 33, label %4
    i8 48, label %4
  ]

4:                                                ; preds = %3, %3
  %5 = load i32, ptr @hf_rdm_pd_component_scope_scope_slot, align 4
  %6 = tail call ptr @proto_tree_add_item(ptr noundef %1, i32 noundef %5, ptr noundef %0, i32 noundef 23, i32 noundef 2, i32 noundef 0)
  %7 = load i32, ptr @hf_rdm_pd_component_scope_scope_string, align 4
  %8 = tail call ptr @proto_tree_add_item(ptr noundef %1, i32 noundef %7, ptr noundef %0, i32 noundef 25, i32 noundef 63, i32 noundef 0)
  %9 = load i32, ptr @hf_rdm_pd_component_scope_scope_static_config_type, align 4
  %10 = tail call ptr @proto_tree_add_item(ptr noundef %1, i32 noundef %9, ptr noundef %0, i32 noundef 88, i32 noundef 1, i32 noundef 0)
  %11 = load i32, ptr @hf_rdm_pd_component_scope_scope_static_ipv4_address, align 4
  %12 = tail call ptr @proto_tree_add_item(ptr noundef %1, i32 noundef %11, ptr noundef %0, i32 noundef 89, i32 noundef 4, i32 noundef 0)
  %13 = load i32, ptr @hf_rdm_pd_component_scope_scope_static_ipv6_address, align 4
  %14 = tail call ptr @proto_tree_add_item(ptr noundef %1, i32 noundef %13, ptr noundef %0, i32 noundef 93, i32 noundef 16, i32 noundef 0)
  br label %.sink.split

.sink.split:                                      ; preds = %3, %4
  %hf_rdm_pd_component_scope_scope_static_port.sink = phi ptr [ @hf_rdm_pd_component_scope_scope_static_port, %4 ], [ @hf_rdm_pd_component_scope_scope_slot, %3 ]
  %.sink28 = phi i32 [ 109, %4 ], [ 23, %3 ]
  %.0.ph = phi i32 [ 111, %4 ], [ 25, %3 ]
  %15 = load i32, ptr %hf_rdm_pd_component_scope_scope_static_port.sink, align 4
  %16 = tail call ptr @proto_tree_add_item(ptr noundef %1, i32 noundef %15, ptr noundef %0, i32 noundef %.sink28, i32 noundef 2, i32 noundef 0)
  br label %17

17:                                               ; preds = %.sink.split, %3
  %.0 = phi i32 [ 23, %3 ], [ %.0.ph, %.sink.split ]
  ret i32 %.0
}